; Function Attrs: nounwind uwtable
define internal noundef i32 @obj_extra_data_clear(ptr noundef captures(none) %0) #0 {
  %2 = getelementptr i8, ptr %0, i64 8
  %.val.i = load ptr, ptr %2, align 8, !tbaa !14
  %3 = getelementptr inbounds nuw i8, ptr %.val.i, i64 32
  %4 = load i64, ptr %3, align 8, !tbaa !28
  %5 = getelementptr i8, ptr %0, i64 %4
  %6 = load ptr, ptr %5, align 8, !tbaa !6
  %.not = icmp eq ptr %6, null
  br i1 %.not, label %Py_DECREF.exit, label %7

7:                                                ; preds = %1
  store ptr null, ptr %5, align 8, !tbaa !6
  %8 = load i32, ptr %6, align 8, !tbaa !3
  %.not.i = icmp sgt i32 %8, -1
  br i1 %.not.i, label %9, label %Py_DECREF.exit

9:                                                ; preds = %7
  %10 = add nsw i32 %8, -1
  store i32 %10, ptr %6, align 8, !tbaa !3
  %11 = icmp eq i32 %10, 0
  br i1 %11, label %12, label %Py_DECREF.exit

12:                                               ; preds = %9
  tail call void @_Py_Dealloc(ptr noundef nonnull %6) #8
  br label %Py_DECREF.exit

Py_DECREF.exit:                                   ; preds = %12, %9, %7, %1
  ret i32 0
}